target datalayout = "e-m:e-p270:32:32-p271:32:32-p272:64:64-i64:64-i128:128-f80:128-n8:16:32:64-S128"
target triple = "x86_64-pc-linux-gnu"

%"class.glslang::TOutputTraverser" = type <{ %"class.glslang::TIntermTraverser", ptr, i32, [4 x i8] }>
%"class.glslang::TIntermTraverser" = type { ptr, i8, i8, i8, i8, i32, i32, %"class.glslang::TVector" }
%"class.glslang::TVector" = type { %"class.std::vector" }
%"class.std::vector" = type { %"struct.std::_Vector_base" }
%"struct.std::_Vector_base" = type { %"struct.std::_Vector_base<TIntermNode *, glslang::pool_allocator<TIntermNode *>>::_Vector_impl" }
%"struct.std::_Vector_base<TIntermNode *, glslang::pool_allocator<TIntermNode *>>::_Vector_impl" = type { %"class.glslang::pool_allocator", %"struct.std::_Vector_base<TIntermNode *, glslang::pool_allocator<TIntermNode *>>::_Vector_impl_data" }
%"class.glslang::pool_allocator" = type { ptr }
%"struct.std::_Vector_base<TIntermNode *, glslang::pool_allocator<TIntermNode *>>::_Vector_impl_data" = type { ptr, ptr, ptr }
%class.TInfoSink = type { %"class.glslang::TInfoSinkBase", %"class.glslang::TInfoSinkBase" }
%"class.glslang::TInfoSinkBase" = type { %"class.std::__cxx11::basic_string", i32, ptr }
%"class.std::__cxx11::basic_string" = type { %"struct.std::__cxx11::basic_string<char>::_Alloc_hider", i64, %union.anon }
%"struct.std::__cxx11::basic_string<char>::_Alloc_hider" = type { ptr }
%union.anon = type { i64, [8 x i8] }
%"struct.glslang::TSourceLoc" = type { ptr, i32, i32, i32 }
%"class.glslang::TIntermTyped" = type { %class.TIntermNode, %"class.glslang::TType" }
%class.TIntermNode = type { ptr, %"struct.glslang::TSourceLoc" }
%"class.glslang::TType" = type { ptr, i32, [4 x i8], %"class.glslang::TQualifier", ptr, %union.anon.0, ptr, ptr, %"struct.glslang::TSampler", ptr, ptr }
%"class.glslang::TQualifier" = type <{ ptr, i64, i8, [3 x i8], i32, i32, i64, i64, i8, i8, i8, i8, i8, [3 x i8], i32, i8, i8, i8, i8, i32, ptr, i8, i8, [6 x i8] }>
%union.anon.0 = type { ptr }
%"struct.glslang::TSampler" = type { i32 }
%"class.glslang::TIntermConstantUnion" = type <{ %"class.glslang::TIntermTyped", %"class.glslang::TConstUnionArray", i8, [7 x i8] }>
%"class.glslang::TConstUnionArray" = type { ptr, ptr }

@.str.770 = private unnamed_addr constant [11 x i8] c"Constant:\0A\00", align 1

; Function Attrs: mustprogress nounwind uwtable
define linkonce_odr noundef nonnull align 8 dereferenceable(16) ptr @_ZNK7glslang20TIntermConstantUnion13getConstArrayEv(ptr noundef nonnull align 8 dereferenceable(201) %0) #0 comdat align 2 {
  %2 = alloca ptr, align 8
  store ptr %0, ptr %2, align 8
  %3 = load ptr, ptr %2, align 8
  %4 = getelementptr inbounds %"class.glslang::TIntermConstantUnion", ptr %3, i32 0, i32 1
  ret ptr %4
}

; Function Attrs: mustprogress nounwind uwtable
define linkonce_odr noundef nonnull align 8 dereferenceable(48) ptr @_ZN7glslang13TInfoSinkBaselsEPKc(ptr noundef nonnull align 8 dereferenceable(48) %0, ptr noundef %1) #0 comdat align 2 {
  %3 = alloca ptr, align 8
  %4 = alloca ptr, align 8
  store ptr %0, ptr %3, align 8
  store ptr %1, ptr %4, align 8
  %5 = load ptr, ptr %3, align 8
  %6 = load ptr, ptr %4, align 8
  call void @_ZN7glslang13TInfoSinkBase6appendEPKc(ptr noundef nonnull align 8 dereferenceable(48) %5, ptr noundef %6)
  ret ptr %5
}

; Function Attrs: mustprogress nounwind uwtable
define void @_ZN7glslang16TOutputTraverser18visitConstantUnionEPNS_20TIntermConstantUnionE(ptr noundef nonnull align 8 dereferenceable(68) %0, ptr noundef %1) unnamed_addr #0 align 2 {
  %3 = alloca ptr, align 8
  %4 = alloca ptr, align 8
  store ptr %0, ptr %3, align 8
  store ptr %1, ptr %4, align 8
  %5 = load ptr, ptr %3, align 8
  %6 = getelementptr inbounds %"class.glslang::TOutputTraverser", ptr %5, i32 0, i32 1
  %7 = load ptr, ptr %6, align 8
  %8 = load ptr, ptr %4, align 8
  %9 = getelementptr inbounds %"class.glslang::TIntermTraverser", ptr %5, i32 0, i32 5
  %10 = load i32, ptr %9, align 4
  call void @_ZN7glslangL14OutputTreeTextER9TInfoSinkPK11TIntermNodei(ptr noundef nonnull align 8 dereferenceable(96) %7, ptr noundef %8, i32 noundef %10)
  %11 = getelementptr inbounds %"class.glslang::TOutputTraverser", ptr %5, i32 0, i32 1
  %12 = load ptr, ptr %11, align 8
  %13 = getelementptr inbounds %class.TInfoSink, ptr %12, i32 0, i32 1
  %14 = call noundef nonnull align 8 dereferenceable(48) ptr @_ZN7glslang13TInfoSinkBaselsEPKc(ptr noundef nonnull align 8 dereferenceable(48) %13, ptr noundef @.str.770)
  %15 = getelementptr inbounds %"class.glslang::TOutputTraverser", ptr %5, i32 0, i32 1
  %16 = load ptr, ptr %15, align 8
  %17 = load ptr, ptr %4, align 8
  %18 = load ptr, ptr %4, align 8
  %19 = call noundef nonnull align 8 dereferenceable(16) ptr @_ZNK7glslang20TIntermConstantUnion13getConstArrayEv(ptr noundef nonnull align 8 dereferenceable(201) %18)
  %20 = getelementptr inbounds %"class.glslang::TOutputTraverser", ptr %5, i32 0, i32 2
  %21 = load i32, ptr %20, align 8
  %22 = getelementptr inbounds %"class.glslang::TIntermTraverser", ptr %5, i32 0, i32 5
  %23 = load i32, ptr %22, align 4
  %24 = add nsw i32 %23, 1
  call void @_ZN7glslangL19OutputConstantUnionER9TInfoSinkPKNS_12TIntermTypedERKNS_16TConstUnionArrayENS_16TOutputTraverser12EExtraOutputEi(ptr noundef nonnull align 8 dereferenceable(96) %16, ptr noundef %17, ptr noundef nonnull align 8 dereferenceable(16) %19, i32 noundef %21, i32 noundef %24)
  ret void
}