; Function Attrs: mustprogress nounwind uwtable
define void @_ZN7glslang16TOutputTraverser18visitConstantUnionEPNS_20TIntermConstantUnionE(ptr noundef nonnull readonly align 8 captures(none) dereferenceable(68) %0, ptr noundef %1) unnamed_addr #0 align 2 {
  %3 = getelementptr inbounds nuw i8, ptr %0, i64 56
  %4 = load ptr, ptr %3, align 8
  %5 = getelementptr inbounds nuw i8, ptr %0, i64 12
  %6 = load i32, ptr %5, align 4
  tail call fastcc void @_ZN7glslangL14OutputTreeTextER9TInfoSinkPK11TIntermNodei(ptr noundef nonnull align 8 dereferenceable(96) %4, ptr noundef %1, i32 noundef %6)
  %7 = load ptr, ptr %3, align 8
  %8 = getelementptr inbounds nuw i8, ptr %7, i64 48
  tail call void @_ZN7glslang13TInfoSinkBase6appendEPKc(ptr noundef nonnull align 8 dereferenceable(48) %8, ptr noundef nonnull @.str.770) #14
  %9 = load ptr, ptr %3, align 8
  %10 = getelementptr inbounds nuw i8, ptr %1, i64 184
  %11 = getelementptr inbounds nuw i8, ptr %0, i64 64
  %12 = load i32, ptr %11, align 8
  %13 = load i32, ptr %5, align 4
  %14 = add nsw i32 %13, 1
  tail call fastcc void @_ZN7glslangL19OutputConstantUnionER9TInfoSinkPKNS_12TIntermTypedERKNS_16TConstUnionArrayENS_16TOutputTraverser12EExtraOutputEi(ptr noundef nonnull align 8 dereferenceable(96) %9, ptr noundef nonnull %1, ptr noundef nonnull align 8 dereferenceable(16) %10, i32 noundef %12, i32 noundef %14)
  ret void
}